ccopy_reg
_reconstructor
p0
(cgoogle.oauth2.credentials
Credentials
p1
c__builtin__
object
p2
Ntp3
Rp4
(dp5
S'_token_uri'
p6
Vhttps://oauth2.googleapis.com/token
p7
sS'_scopes'
p8
(lp9
S'https://www.googleapis.com/auth/drive'
p10
asS'_id_token'
p11
NsS'token'
p12
Vya29.GlwnB6Xf2GZ3gmIaztM49Yk03yUStzb63iIIRd3OX6HK7H6ayXvodmCN5GZDvDYgZ5WesCGRXmVsqsHTzYyswGprkm33wAqVhDo_JHDB97OmT7HPXDDyEyHD9Mj7CA
p13
sS'_refresh_token'
p14
V1/qMxg2PhoemmZATMLaMYUCqMSm3pxCcdOTVFa8HnoYNQ906qgUddb-evpLAzjbSjt
p15
sS'_client_secret'
p16
V0RPAOe3humz9eEhm6IXjnBOn
p17
sS'_client_id'
p18
V1064373440718-sb1dsrpu3mr2vmqh4s5q6dfenpvrjjvo.apps.googleusercontent.com
p19
sS'expiry'
p20
cdatetime
datetime
p21
(S'\x07\xe3\x06\x0c\x17\x15!\x04\x81~'
p22
tp23
Rp24
sb.