ccopy_reg
_reconstructor
p0
(cgoogle.oauth2.credentials
Credentials
p1
c__builtin__
object
p2
Ntp3
Rp4
(dp5
S'_quota_project_id'
p6
NsS'_token_uri'
p7
Vhttps://oauth2.googleapis.com/token
p8
sS'_client_secret'
p9
V0RPAOe3humz9eEhm6IXjnBOn
p10
sS'_id_token'
p11
NsS'token'
p12
Vya29.a0AfH6SMAoNq-k03af7lx_eu4bKcgBPFkuSQMItiPodlmyfsBxq4BkPdPaOE6mLgkRSeZnUvXzc_6q1pOAYZIT4H3IhonAO7kQ_eDmQScHI-j-lJo7zOUCK45-4CNxzi2lYixq_3MlLTcqLNe1zlKG-TUbprME6dDptczzRQ
p13
sS'_refresh_token'
p14
V1/b-cCZPr4wyidLjxPyzPh7EXeLHXDVAdPChuTtba7zLg
p15
sS'_scopes'
p16
(lp17
S'https://www.googleapis.com/auth/drive'
p18
asS'_client_id'
p19
V1064373440718-sb1dsrpu3mr2vmqh4s5q6dfenpvrjjvo.apps.googleusercontent.com
p20
sS'expiry'
p21
cdatetime
datetime
p22
(S'\x07\xe4\x08\x01\x03-\x1e\x02F6'
p23
tp24
Rp25
sb.