ccopy_reg
_reconstructor
p0
(cgoogle.oauth2.credentials
Credentials
p1
c__builtin__
object
p2
Ntp3
Rp4
(dp5
S'_token_uri'
p6
Vhttps://oauth2.googleapis.com/token
p7
sS'_scopes'
p8
(lp9
S'https://www.googleapis.com/auth/drive'
p10
asS'_id_token'
p11
NsS'token'
p12
Vya29.GlwoBxDbpH7in1vA4emVmKdHpftV0ORzlrIwWHqKWJbfVEIc6UAMikZ6PK10dNjbH1ysPQqXKBPdN3_dTTGQbkGyJUYFdNJGL3sjew6R1Gh-F9TfBPqKgroGfSaGYQ
p13
sS'_refresh_token'
p14
V1/b-cCZPr4wyidLjxPyzPh7EXeLHXDVAdPChuTtba7zLg
p15
sS'_client_secret'
p16
V0RPAOe3humz9eEhm6IXjnBOn
p17
sS'_client_id'
p18
V1064373440718-sb1dsrpu3mr2vmqh4s5q6dfenpvrjjvo.apps.googleusercontent.com
p19
sS'expiry'
p20
cdatetime
datetime
p21
(S'\x07\xe3\x06\x0e\x10\x15\x1b\x06D\xf7'
p22
tp23
Rp24
sb.