ccopy_reg
_reconstructor
p0
(cgoogle.oauth2.credentials
Credentials
p1
c__builtin__
object
p2
Ntp3
Rp4
(dp5
S'_token_uri'
p6
Vhttps://oauth2.googleapis.com/token
p7
sS'_client_secret'
p8
V0RPAOe3humz9eEhm6IXjnBOn
p9
sS'_id_token'
p10
NsS'token'
p11
Vya29.GlslB_OYr0GqWVE-qQFzUasGzhQj_Wr04c4hcJUFOypKdWKVdCNoXBpmzljduQkHRARNM0xKQsobaY4hHqJqZH64M2j4qyAIbLKA4cBpkNfBhWA1d1O9hUizthgJ
p12
sS'_refresh_token'
p13
V1/qMxg2PhoemmZATMLaMYUCqMSm3pxCcdOTVFa8HnoYNQ906qgUddb-evpLAzjbSjt
p14
sS'_scopes'
p15
(lp16
S'https://www.googleapis.com/auth/drive'
p17
asS'_client_id'
p18
V1064373440718-sb1dsrpu3mr2vmqh4s5q6dfenpvrjjvo.apps.googleusercontent.com
p19
sS'expiry'
p20
cdatetime
datetime
p21
(S'\x07\xe3\x06\x0b\x15\x13.\x0etG'
p22
tp23
Rp24
sb.