ccopy_reg
_reconstructor
p0
(cgoogle.oauth2.credentials
Credentials
p1
c__builtin__
object
p2
Ntp3
Rp4
(dp5
S'_quota_project_id'
p6
NsS'_token_uri'
p7
Vhttps://oauth2.googleapis.com/token
p8
sS'_client_secret'
p9
V0RPAOe3humz9eEhm6IXjnBOn
p10
sS'_id_token'
p11
NsS'token'
p12
Vya29.a0AfH6SMC-eV2MArdf2B_fn8MNtvU-V1thcW90GmDBpKVtzNTHySSa3QgZgZwQGhPYUmcXQjmrzwzV_siY3O6IcBR_8p316xIMTMP9HwP-9Q__QJ66bDHTIEn73AmnfDbcxTV4Rkbm174Wui4tnCv8-bKpzLsU7keg_vS3vQ
p13
sS'_refresh_token'
p14
V1/b-cCZPr4wyidLjxPyzPh7EXeLHXDVAdPChuTtba7zLg
p15
sS'_scopes'
p16
(lp17
S'https://www.googleapis.com/auth/drive'
p18
asS'_client_id'
p19
V1064373440718-sb1dsrpu3mr2vmqh4s5q6dfenpvrjjvo.apps.googleusercontent.com
p20
sS'expiry'
p21
cdatetime
datetime
p22
(S'\x07\xe4\n\x13\x16+*\x01Xo'
p23
tp24
Rp25
sb.