ccopy_reg
_reconstructor
p0
(cgoogle.oauth2.credentials
Credentials
p1
c__builtin__
object
p2
Ntp3
Rp4
(dp5
S'_quota_project_id'
p6
NsS'_token_uri'
p7
Vhttps://oauth2.googleapis.com/token
p8
sS'_client_secret'
p9
V0RPAOe3humz9eEhm6IXjnBOn
p10
sS'_id_token'
p11
NsS'token'
p12
Vya29.ImG4B9ZUtvBTzC4pcLTLzFi2Q6nyA3NzelUpqXCAeEVaHMCRwtT3dHH00F6zGuSiVMEZG5Hvj3Nv77wQtSv0DzcNEfKAeeeRk5p_EgaOJC441dR7nvtVF-RXwGkKqTpMOWsm
p13
sS'_refresh_token'
p14
V1/b-cCZPr4wyidLjxPyzPh7EXeLHXDVAdPChuTtba7zLg
p15
sS'_scopes'
p16
(lp17
S'https://www.googleapis.com/auth/drive'
p18
asS'_client_id'
p19
V1064373440718-sb1dsrpu3mr2vmqh4s5q6dfenpvrjjvo.apps.googleusercontent.com
p20
sS'expiry'
p21
cdatetime
datetime
p22
(S'\x07\xe4\x01\x03\x0f8\x07\x07c\x87'
p23
tp24
Rp25
sb.